target datalayout = "e-m:e-p270:32:32-p271:32:32-p272:64:64-i64:64-i128:128-f80:128-n8:16:32:64-S128"
target triple = "x86_64-pc-linux-gnu"

%struct.FT_FaceRec_ = type { i64, i64, i64, i64, i64, ptr, ptr, i32, ptr, i32, ptr, %struct.FT_Generic_, %struct.FT_BBox_, i16, i16, i16, i16, i16, i16, i16, i16, ptr, ptr, ptr, ptr, ptr, ptr, %struct.FT_ListRec_, %struct.FT_Generic_, ptr, ptr }
%struct.FT_BBox_ = type { i64, i64, i64, i64 }
%struct.FT_ListRec_ = type { ptr, ptr }
%struct.FT_Generic_ = type { ptr, ptr }
%struct.TT_FaceRec_ = type { %struct.FT_FaceRec_, %struct.TTC_HeaderRec_, i64, i16, ptr, %struct.TT_Header_, %struct.TT_HoriHeader_, %struct.TT_MaxProfile_, i8, %struct.TT_VertHeader_, i16, %struct.TT_NameTableRec_, %struct.TT_OS2_, %struct.TT_Postscript_, ptr, i64, ptr, ptr, ptr, ptr, ptr, ptr, ptr, ptr, ptr, ptr, ptr, ptr, %struct.TT_Gasp_, %struct.TT_PCLT_, i64, ptr, %struct.TT_Post_NamesRec_, %struct.FT_Palette_Data_, i16, ptr, i8, %struct.FT_Color_, i64, ptr, i64, ptr, i64, ptr, ptr, %struct.FT_Generic_, ptr, i64, i64, i8, i8, ptr, i32, ptr, i32, i32, ptr, i64, i64, i64, ptr, ptr, i64, i32, i64, ptr, ptr, i64, i32, i32, ptr, ptr, i64, i32, i32, i32, %struct.TT_BDFRec_, i64, i64, i64, i64, ptr, ptr, ptr }
%struct.TTC_HeaderRec_ = type { i64, i64, i64, ptr }
%struct.TT_Header_ = type { i64, i64, i64, i64, i16, i16, [2 x i64], [2 x i64], i16, i16, i16, i16, i16, i16, i16, i16, i16 }
%struct.TT_HoriHeader_ = type { i64, i16, i16, i16, i16, i16, i16, i16, i16, i16, i16, [4 x i16], i16, i16, ptr, ptr }
%struct.TT_MaxProfile_ = type { i64, i16, i16, i16, i16, i16, i16, i16, i16, i16, i16, i16, i16, i16, i16 }
%struct.TT_VertHeader_ = type { i64, i16, i16, i16, i16, i16, i16, i16, i16, i16, i16, [4 x i16], i16, i16, ptr, ptr }
%struct.TT_NameTableRec_ = type { i16, i32, i32, ptr, i32, ptr, ptr }
%struct.TT_OS2_ = type { i16, i16, i16, i16, i16, i16, i16, i16, i16, i16, i16, i16, i16, i16, i16, i16, [10 x i8], i64, i64, i64, i64, [4 x i8], i16, i16, i16, i16, i16, i16, i16, i16, i64, i64, i16, i16, i16, i16, i16, i16, i16 }
%struct.TT_Postscript_ = type { i64, i64, i16, i16, i64, i64, i64, i64, i64 }
%struct.TT_Gasp_ = type { i16, i16, ptr }
%struct.TT_PCLT_ = type { i64, i64, i16, i16, i16, i16, i16, i16, [16 x i8], [8 x i8], [6 x i8], i8, i8, i8, i8 }
%struct.TT_Post_NamesRec_ = type { i8, i16, i16, ptr, ptr }
%struct.FT_Palette_Data_ = type { i16, ptr, ptr, i16, ptr }
%struct.FT_Color_ = type { i8, i8, i8, i8 }
%struct.TT_BDFRec_ = type { ptr, ptr, ptr, i64, i32, i8 }
%struct.TT_SBitDecoderRec_ = type { ptr, ptr, ptr, ptr, i8, i8, i8, i64, i64, i64, i64, ptr, ptr }
%struct.FT_Bitmap_ = type { i32, i32, i32, ptr, i16, i8, i8, ptr }
%struct.TT_SBit_MetricsRec_ = type { i16, i16, i16, i16, i16, i16, i16, i16 }

; Function Attrs: nounwind uwtable
define internal i32 @tt_sbit_decoder_alloc_bitmap(ptr noundef %0, i8 noundef zeroext %1) #0 {
  %3 = alloca ptr, align 8
  %4 = alloca i8, align 1
  %5 = alloca i32, align 4
  %6 = alloca i32, align 4
  %7 = alloca i32, align 4
  %8 = alloca ptr, align 8
  %9 = alloca i64, align 8
  store ptr %0, ptr %3, align 8
  store i8 %1, ptr %4, align 1
  store i32 0, ptr %5, align 4
  %10 = load ptr, ptr %3, align 8
  %11 = getelementptr inbounds %struct.TT_SBitDecoderRec_, ptr %10, i32 0, i32 2
  %12 = load ptr, ptr %11, align 8
  store ptr %12, ptr %8, align 8
  %13 = load ptr, ptr %3, align 8
  %14 = getelementptr inbounds %struct.TT_SBitDecoderRec_, ptr %13, i32 0, i32 4
  %15 = load i8, ptr %14, align 8
  %16 = icmp ne i8 %15, 0
  br i1 %16, label %18, label %17

17:                                               ; preds = %2
  store i32 6, ptr %5, align 4
  br label %131

18:                                               ; preds = %2
  %19 = load ptr, ptr %3, align 8
  %20 = getelementptr inbounds %struct.TT_SBitDecoderRec_, ptr %19, i32 0, i32 3
  %21 = load ptr, ptr %20, align 8
  %22 = getelementptr inbounds %struct.TT_SBit_MetricsRec_, ptr %21, i32 0, i32 1
  %23 = load i16, ptr %22, align 2
  %24 = zext i16 %23 to i32
  store i32 %24, ptr %6, align 4
  %25 = load ptr, ptr %3, align 8
  %26 = getelementptr inbounds %struct.TT_SBitDecoderRec_, ptr %25, i32 0, i32 3
  %27 = load ptr, ptr %26, align 8
  %28 = getelementptr inbounds %struct.TT_SBit_MetricsRec_, ptr %27, i32 0, i32 0
  %29 = load i16, ptr %28, align 2
  %30 = zext i16 %29 to i32
  store i32 %30, ptr %7, align 4
  %31 = load i32, ptr %6, align 4
  %32 = load ptr, ptr %8, align 8
  %33 = getelementptr inbounds %struct.FT_Bitmap_, ptr %32, i32 0, i32 1
  store i32 %31, ptr %33, align 4
  %34 = load i32, ptr %7, align 4
  %35 = load ptr, ptr %8, align 8
  %36 = getelementptr inbounds %struct.FT_Bitmap_, ptr %35, i32 0, i32 0
  store i32 %34, ptr %36, align 8
  %37 = load ptr, ptr %3, align 8
  %38 = getelementptr inbounds %struct.TT_SBitDecoderRec_, ptr %37, i32 0, i32 6
  %39 = load i8, ptr %38, align 2
  %40 = zext i8 %39 to i32
  switch i32 %40, label %98 [
    i32 1, label %41
    i32 2, label %53
    i32 4, label %65
    i32 8, label %77
    i32 32, label %87
  ]

41:                                               ; preds = %18
  %42 = load ptr, ptr %8, align 8
  %43 = getelementptr inbounds %struct.FT_Bitmap_, ptr %42, i32 0, i32 5
  store i8 1, ptr %43, align 2
  %44 = load ptr, ptr %8, align 8
  %45 = getelementptr inbounds %struct.FT_Bitmap_, ptr %44, i32 0, i32 1
  %46 = load i32, ptr %45, align 4
  %47 = add i32 %46, 7
  %48 = lshr i32 %47, 3
  %49 = load ptr, ptr %8, align 8
  %50 = getelementptr inbounds %struct.FT_Bitmap_, ptr %49, i32 0, i32 2
  store i32 %48, ptr %50, align 8
  %51 = load ptr, ptr %8, align 8
  %52 = getelementptr inbounds %struct.FT_Bitmap_, ptr %51, i32 0, i32 4
  store i16 2, ptr %52, align 8
  br label %99

53:                                               ; preds = %18
  %54 = load ptr, ptr %8, align 8
  %55 = getelementptr inbounds %struct.FT_Bitmap_, ptr %54, i32 0, i32 5
  store i8 3, ptr %55, align 2
  %56 = load ptr, ptr %8, align 8
  %57 = getelementptr inbounds %struct.FT_Bitmap_, ptr %56, i32 0, i32 1
  %58 = load i32, ptr %57, align 4
  %59 = add i32 %58, 3
  %60 = lshr i32 %59, 2
  %61 = load ptr, ptr %8, align 8
  %62 = getelementptr inbounds %struct.FT_Bitmap_, ptr %61, i32 0, i32 2
  store i32 %60, ptr %62, align 8
  %63 = load ptr, ptr %8, align 8
  %64 = getelementptr inbounds %struct.FT_Bitmap_, ptr %63, i32 0, i32 4
  store i16 4, ptr %64, align 8
  br label %99

65:                                               ; preds = %18
  %66 = load ptr, ptr %8, align 8
  %67 = getelementptr inbounds %struct.FT_Bitmap_, ptr %66, i32 0, i32 5
  store i8 4, ptr %67, align 2
  %68 = load ptr, ptr %8, align 8
  %69 = getelementptr inbounds %struct.FT_Bitmap_, ptr %68, i32 0, i32 1
  %70 = load i32, ptr %69, align 4
  %71 = add i32 %70, 1
  %72 = lshr i32 %71, 1
  %73 = load ptr, ptr %8, align 8
  %74 = getelementptr inbounds %struct.FT_Bitmap_, ptr %73, i32 0, i32 2
  store i32 %72, ptr %74, align 8
  %75 = load ptr, ptr %8, align 8
  %76 = getelementptr inbounds %struct.FT_Bitmap_, ptr %75, i32 0, i32 4
  store i16 16, ptr %76, align 8
  br label %99

77:                                               ; preds = %18
  %78 = load ptr, ptr %8, align 8
  %79 = getelementptr inbounds %struct.FT_Bitmap_, ptr %78, i32 0, i32 5
  store i8 2, ptr %79, align 2
  %80 = load ptr, ptr %8, align 8
  %81 = getelementptr inbounds %struct.FT_Bitmap_, ptr %80, i32 0, i32 1
  %82 = load i32, ptr %81, align 4
  %83 = load ptr, ptr %8, align 8
  %84 = getelementptr inbounds %struct.FT_Bitmap_, ptr %83, i32 0, i32 2
  store i32 %82, ptr %84, align 8
  %85 = load ptr, ptr %8, align 8
  %86 = getelementptr inbounds %struct.FT_Bitmap_, ptr %85, i32 0, i32 4
  store i16 256, ptr %86, align 8
  br label %99

87:                                               ; preds = %18
  %88 = load ptr, ptr %8, align 8
  %89 = getelementptr inbounds %struct.FT_Bitmap_, ptr %88, i32 0, i32 5
  store i8 7, ptr %89, align 2
  %90 = load ptr, ptr %8, align 8
  %91 = getelementptr inbounds %struct.FT_Bitmap_, ptr %90, i32 0, i32 1
  %92 = load i32, ptr %91, align 4
  %93 = mul i32 %92, 4
  %94 = load ptr, ptr %8, align 8
  %95 = getelementptr inbounds %struct.FT_Bitmap_, ptr %94, i32 0, i32 2
  store i32 %93, ptr %95, align 8
  %96 = load ptr, ptr %8, align 8
  %97 = getelementptr inbounds %struct.FT_Bitmap_, ptr %96, i32 0, i32 4
  store i16 256, ptr %97, align 8
  br label %99

98:                                               ; preds = %18
  store i32 3, ptr %5, align 4
  br label %131

99:                                               ; preds = %87, %77, %65, %53, %41
  %100 = load ptr, ptr %8, align 8
  %101 = getelementptr inbounds %struct.FT_Bitmap_, ptr %100, i32 0, i32 0
  %102 = load i32, ptr %101, align 8
  %103 = zext i32 %102 to i64
  %104 = load ptr, ptr %8, align 8
  %105 = getelementptr inbounds %struct.FT_Bitmap_, ptr %104, i32 0, i32 2
  %106 = load i32, ptr %105, align 8
  %107 = sext i32 %106 to i64
  %108 = mul i64 %103, %107
  store i64 %108, ptr %9, align 8
  %109 = load i64, ptr %9, align 8
  %110 = icmp eq i64 %109, 0
  br i1 %110, label %111, label %112

111:                                              ; preds = %99
  br label %131

112:                                              ; preds = %99
  %113 = load i8, ptr %4, align 1
  %114 = icmp ne i8 %113, 0
  br i1 %114, label %115, label %116

115:                                              ; preds = %112
  br label %131

116:                                              ; preds = %112
  %117 = load ptr, ptr %3, align 8
  %118 = getelementptr inbounds %struct.TT_SBitDecoderRec_, ptr %117, i32 0, i32 0
  %119 = load ptr, ptr %118, align 8
  %120 = getelementptr inbounds %struct.TT_FaceRec_, ptr %119, i32 0, i32 0
  %121 = getelementptr inbounds %struct.FT_FaceRec_, ptr %120, i32 0, i32 21
  %122 = load ptr, ptr %121, align 8
  %123 = load i64, ptr %9, align 8
  %124 = call i32 @ft_glyphslot_alloc_bitmap(ptr noundef %122, i64 noundef %123)
  store i32 %124, ptr %5, align 4
  %125 = load i32, ptr %5, align 4
  %126 = icmp ne i32 %125, 0
  br i1 %126, label %127, label %128

127:                                              ; preds = %116
  br label %131

128:                                              ; preds = %116
  %129 = load ptr, ptr %3, align 8
  %130 = getelementptr inbounds %struct.TT_SBitDecoderRec_, ptr %129, i32 0, i32 5
  store i8 1, ptr %130, align 1
  br label %131

131:                                              ; preds = %128, %127, %115, %111, %98, %17
  %132 = load i32, ptr %5, align 4
  ret i32 %132
}