; Function Attrs: nounwind uwtable
define internal fastcc i32 @tt_sbit_decoder_alloc_bitmap(ptr nocapture noundef %0, i8 noundef zeroext %1) unnamed_addr #0 {
  %3 = getelementptr inbounds i8, ptr %0, i64 16
  %4 = load ptr, ptr %3, align 8
  %5 = getelementptr inbounds i8, ptr %0, i64 32
  %6 = load i8, ptr %5, align 8
  %.not = icmp eq i8 %6, 0
  br i1 %.not, label %50, label %7

7:                                                ; preds = %2
  %8 = getelementptr inbounds i8, ptr %0, i64 24
  %9 = load ptr, ptr %8, align 8
  %10 = getelementptr inbounds i8, ptr %9, i64 2
  %11 = load i16, ptr %10, align 2
  %12 = zext i16 %11 to i32
  %13 = load i16, ptr %9, align 2
  %14 = zext i16 %13 to i32
  %15 = getelementptr inbounds i8, ptr %4, i64 4
  store i32 %12, ptr %15, align 4
  store i32 %14, ptr %4, align 8
  %16 = getelementptr inbounds i8, ptr %0, i64 34
  %17 = load i8, ptr %16, align 2
  switch i8 %17, label %50 [
    i8 1, label %18
    i8 2, label %22
    i8 4, label %26
    i8 8, label %30
    i8 32, label %32
  ]

18:                                               ; preds = %7
  %19 = getelementptr inbounds i8, ptr %4, i64 26
  store i8 1, ptr %19, align 2
  %20 = add nuw nsw i32 %12, 7
  %21 = lshr i32 %20, 3
  br label %35

22:                                               ; preds = %7
  %23 = getelementptr inbounds i8, ptr %4, i64 26
  store i8 3, ptr %23, align 2
  %24 = add nuw nsw i32 %12, 3
  %25 = lshr i32 %24, 2
  br label %35

26:                                               ; preds = %7
  %27 = getelementptr inbounds i8, ptr %4, i64 26
  store i8 4, ptr %27, align 2
  %28 = add nuw nsw i32 %12, 1
  %29 = lshr i32 %28, 1
  br label %35

30:                                               ; preds = %7
  %31 = getelementptr inbounds i8, ptr %4, i64 26
  store i8 2, ptr %31, align 2
  br label %35

32:                                               ; preds = %7
  %33 = getelementptr inbounds i8, ptr %4, i64 26
  store i8 7, ptr %33, align 2
  %34 = shl nuw nsw i32 %12, 2
  br label %35

35:                                               ; preds = %32, %30, %26, %22, %18
  %.sink42 = phi i32 [ %34, %32 ], [ %12, %30 ], [ %29, %26 ], [ %25, %22 ], [ %21, %18 ]
  %.sink = phi i16 [ 256, %32 ], [ 256, %30 ], [ 16, %26 ], [ 4, %22 ], [ 2, %18 ]
  %36 = getelementptr inbounds i8, ptr %4, i64 8
  store i32 %.sink42, ptr %36, align 8
  %37 = getelementptr inbounds i8, ptr %4, i64 24
  store i16 %.sink, ptr %37, align 8
  %38 = zext i16 %13 to i64
  %39 = zext nneg i32 %.sink42 to i64
  %40 = mul nuw nsw i64 %39, %38
  %41 = icmp eq i64 %40, 0
  %42 = icmp ne i8 %1, 0
  %or.cond = or i1 %42, %41
  br i1 %or.cond, label %50, label %43

43:                                               ; preds = %35
  %44 = load ptr, ptr %0, align 8
  %45 = getelementptr inbounds i8, ptr %44, i64 152
  %46 = load ptr, ptr %45, align 8
  %47 = tail call i32 @ft_glyphslot_alloc_bitmap(ptr noundef %46, i64 noundef %40) #26
  %.not40 = icmp eq i32 %47, 0
  br i1 %.not40, label %48, label %50

48:                                               ; preds = %43
  %49 = getelementptr inbounds i8, ptr %0, i64 33
  store i8 1, ptr %49, align 1
  br label %50

50:                                               ; preds = %7, %2, %43, %35, %48
  %.0 = phi i32 [ 0, %35 ], [ %47, %43 ], [ 0, %48 ], [ 6, %2 ], [ 3, %7 ]
  ret i32 %.0
}